; Function Attrs: nounwind uwtable
define hidden ptr @SDL_GetClipboardMimeTypes_REAL(ptr noundef writeonly captures(address_is_null) %0) local_unnamed_addr #0 {
  %2 = tail call ptr @SDL_GetVideoDevice() #6
  %.not = icmp eq ptr %0, null
  br i1 %.not, label %3, label %.thread

3:                                                ; preds = %1
  %.not11 = icmp eq ptr %2, null
  br i1 %.not11, label %4, label %._crit_edge

._crit_edge:                                      ; preds = %3
  %.phi.trans.insert = getelementptr inbounds nuw i8, ptr %2, i64 888
  %.pre = load i64, ptr %.phi.trans.insert, align 8
  br label %9

.thread:                                          ; preds = %1
  store i64 0, ptr %0, align 8
  %.not1112 = icmp eq ptr %2, null
  br i1 %.not1112, label %4, label %6

4:                                                ; preds = %.thread, %3
  %5 = tail call zeroext i1 @SDL_UninitializedVideo() #6
  br label %SDL_CopyClipboardMimeTypes.exit

6:                                                ; preds = %.thread
  %7 = getelementptr inbounds nuw i8, ptr %2, i64 888
  %8 = load i64, ptr %7, align 8
  store i64 %8, ptr %0, align 8
  br label %9

9:                                                ; preds = %._crit_edge, %6
  %10 = phi i64 [ %.pre, %._crit_edge ], [ %8, %6 ]
  %11 = getelementptr inbounds nuw i8, ptr %2, i64 880
  %12 = load ptr, ptr %11, align 8
  %.not41.i = icmp eq i64 %10, 0
  br i1 %.not41.i, label %._crit_edge.i, label %.lr.ph.i

._crit_edge.i:                                    ; preds = %9
  %13 = tail call noalias ptr @SDL_malloc_REAL(i64 noundef 8) #6
  %.not.i = icmp eq ptr %13, null
  br i1 %.not.i, label %SDL_CopyClipboardMimeTypes.exit, label %._crit_edge40.i

._crit_edge.i.thread:                             ; preds = %.lr.ph.i
  %14 = tail call noalias ptr @SDL_malloc_REAL(i64 noundef %19) #6
  %.not.i15 = icmp eq ptr %14, null
  br i1 %.not.i15, label %SDL_CopyClipboardMimeTypes.exit, label %.lr.ph39.preheader.i

.lr.ph.i:                                         ; preds = %9, %.lr.ph.i
  %.02935.i = phi i64 [ %19, %.lr.ph.i ], [ 8, %9 ]
  %.03134.i = phi i64 [ %20, %.lr.ph.i ], [ 0, %9 ]
  %15 = getelementptr inbounds nuw ptr, ptr %12, i64 %.03134.i
  %16 = load ptr, ptr %15, align 8
  %17 = tail call i64 @SDL_strlen_REAL(ptr noundef %16) #6
  %18 = add i64 %.02935.i, 9
  %19 = add i64 %18, %17
  %20 = add nuw i64 %.03134.i, 1
  %exitcond.not.i = icmp eq i64 %20, %10
  br i1 %exitcond.not.i, label %._crit_edge.i.thread, label %.lr.ph.i, !llvm.loop !7

.lr.ph39.preheader.i:                             ; preds = %._crit_edge.i.thread
  %21 = shl i64 %10, 3
  %22 = getelementptr i8, ptr %14, i64 %21
  %23 = getelementptr i8, ptr %22, i64 8
  br label %.lr.ph39.i

._crit_edge40.i:                                  ; preds = %33, %._crit_edge.i
  %24 = phi ptr [ %13, %._crit_edge.i ], [ %14, %33 ]
  %25 = getelementptr inbounds nuw ptr, ptr %24, i64 %10
  store ptr null, ptr %25, align 8
  br label %SDL_CopyClipboardMimeTypes.exit

.lr.ph39.i:                                       ; preds = %33, %.lr.ph39.preheader.i
  %.02837.i = phi i64 [ %34, %33 ], [ 0, %.lr.ph39.preheader.i ]
  %.136.i = phi ptr [ %32, %33 ], [ %23, %.lr.ph39.preheader.i ]
  %26 = getelementptr inbounds nuw ptr, ptr %14, i64 %.02837.i
  store ptr %.136.i, ptr %26, align 8
  %27 = getelementptr inbounds nuw ptr, ptr %12, i64 %.02837.i
  %28 = load ptr, ptr %27, align 8
  br label %29

29:                                               ; preds = %29, %.lr.ph39.i
  %.2.i = phi ptr [ %.136.i, %.lr.ph39.i ], [ %32, %29 ]
  %.027.i = phi ptr [ %28, %.lr.ph39.i ], [ %30, %29 ]
  %30 = getelementptr inbounds nuw i8, ptr %.027.i, i64 1
  %31 = load i8, ptr %.027.i, align 1
  %32 = getelementptr inbounds nuw i8, ptr %.2.i, i64 1
  store i8 %31, ptr %.2.i, align 1
  %.not33.i = icmp eq i8 %31, 0
  br i1 %.not33.i, label %33, label %29, !llvm.loop !8

33:                                               ; preds = %29
  %34 = add nuw i64 %.02837.i, 1
  %exitcond44.not.i = icmp eq i64 %34, %10
  br i1 %exitcond44.not.i, label %._crit_edge40.i, label %.lr.ph39.i, !llvm.loop !9

SDL_CopyClipboardMimeTypes.exit:                  ; preds = %._crit_edge40.i, %._crit_edge.i, %._crit_edge.i.thread, %4
  %.0 = phi ptr [ null, %4 ], [ null, %._crit_edge.i.thread ], [ null, %._crit_edge.i ], [ %24, %._crit_edge40.i ]
  ret ptr %.0
}